target datalayout = "e-m:e-p270:32:32-p271:32:32-p272:64:64-i64:64-i128:128-f80:128-n8:16:32:64-S128"
target triple = "x86_64-pc-linux-gnu"

%struct.job_descriptor = type { ptr, ptr, ptr, ptr, i16, i32, i32, ptr, ptr, ptr, ptr, i64, i64, ptr, ptr, ptr, ptr, i16, ptr, ptr, i16, ptr, i16, i32, i32, i32, ptr, ptr, i64, i32, ptr, i64, ptr, %struct.slurm_hash_t, i32, ptr, ptr, ptr, i64, i64, i32, i32, ptr, i16, i32, ptr, ptr, i16, ptr, ptr, i16, ptr, ptr, ptr, i16, ptr, ptr, ptr, i32, i32, i16, i8, ptr, i16, i8, ptr, i16, ptr, i32, i32, ptr, i16, ptr, i16, ptr, i16, ptr, i16, ptr, ptr, %struct.slurm_hash_t, i16, i32, ptr, i32, ptr, i32, i32, i32, ptr, ptr, ptr, ptr, ptr, ptr, i32, i16, i16, i16, i16, ptr, i16, i32, i32, i32, i32, i16, i16, i16, i16, i16, i16, i16, i16, i16, i16, i16, i64, i32, ptr, i32, i16, ptr, ptr, ptr, ptr, ptr, i32, ptr, i16, ptr, ptr, i16 }
%struct.slurm_hash_t = type { i8, [32 x i8] }
%struct.job_record = type { i32, ptr, ptr, ptr, ptr, i16, i32, i32, i32, ptr, i32, ptr, ptr, i16, ptr, double, i64, ptr, ptr, ptr, ptr, ptr, ptr, i32, ptr, i32, i64, i64, i32, i32, ptr, i16, i64, i64, i8, i32, ptr, ptr, ptr, ptr, ptr, ptr, ptr, ptr, i32, ptr, ptr, i32, ptr, i32, ptr, i32, ptr, i32, ptr, ptr, ptr, ptr, ptr, ptr, i32, i16, i64, ptr, ptr, ptr, ptr, %struct.acct_policy_limit_set_t, i16, ptr, ptr, ptr, ptr, ptr, i32, ptr, ptr, ptr, ptr, ptr, i32, i32, ptr, ptr, ptr, i16, ptr, ptr, i8, ptr, ptr, i64, i64, i8, i32, i32, i8, i32, ptr, i32, i64, i32, ptr, ptr, ptr, i8, i16, i64, i32, ptr, ptr, ptr, ptr, ptr, i16, i32, ptr, ptr, ptr, ptr, i32, ptr, i32, i16, i64, ptr, i32, i32, ptr, i64, ptr, ptr, i64, i32, i32, i64, i32, i32, ptr, ptr, ptr, ptr, ptr, ptr, ptr, ptr, ptr, ptr, ptr, ptr, i32, ptr, i16, i16, i16, i16, ptr, i32, i32, i8, i64 }
%struct.acct_policy_limit_set_t = type { i16, i16, ptr }
%struct.job_details_t = type { i32, ptr, i64, ptr, i32, ptr, i64, ptr, i16, i16, ptr, i16, i32, i32, i32, i16, ptr, i16, ptr, ptr, ptr, i16, ptr, ptr, ptr, ptr, i32, ptr, ptr, ptr, ptr, ptr, i32, i32, i32, ptr, ptr, i16, i32, i32, i32, i32, i32, i32, i16, i16, i32, i8, i8, i32, i32, i64, i64, i16, i32, ptr, ptr, i8, ptr, i32, ptr, i64, ptr, ptr, i16, i16, i16, i8, ptr, ptr, ptr, ptr, ptr, ptr, i64, i32, i32, i8, ptr, i16, ptr, ptr, i16 }

@.str.3 = private unnamed_addr constant [2 x i8] c",\00", align 1
@.str.4 = private unnamed_addr constant [8 x i8] c"stdout=\00", align 1
@.str.5 = private unnamed_addr constant [2 x i8] c"/\00", align 1
@.str.6 = private unnamed_addr constant [3 x i8] c"%j\00", align 1
@.str.7 = private unnamed_addr constant [3 x i8] c"%u\00", align 1

; Function Attrs: nounwind uwtable
define dso_local i32 @job_modify(ptr noundef %0, ptr noundef %1, i32 noundef %2, ptr noundef %3) #0 {
  %5 = alloca ptr, align 8
  %6 = alloca ptr, align 8
  %7 = alloca i32, align 4
  %8 = alloca ptr, align 8
  %9 = alloca ptr, align 8
  %10 = alloca ptr, align 8
  %11 = alloca ptr, align 8
  store ptr %0, ptr %5, align 8
  store ptr %1, ptr %6, align 8
  store i32 %2, ptr %7, align 4
  store ptr %3, ptr %8, align 8
  call void @llvm.lifetime.start.p0(i64 8, ptr %9) #9
  %12 = load ptr, ptr %5, align 8
  %13 = load i32, ptr %7, align 4
  %14 = load ptr, ptr %6, align 8
  %15 = getelementptr inbounds nuw %struct.job_record, ptr %14, i32 0, i32 53
  %16 = load i32, ptr %15, align 8
  call void @_xlate_dependency(ptr noundef %12, i32 noundef %13, i32 noundef %16)
  %17 = load ptr, ptr %5, align 8
  %18 = getelementptr inbounds nuw %struct.job_descriptor, ptr %17, i32 0, i32 125
  %19 = load ptr, ptr %18, align 8
  %20 = icmp ne ptr %19, null
  br i1 %20, label %21, label %94

21:                                               ; preds = %4
  %22 = load ptr, ptr %6, align 8
  %23 = getelementptr inbounds nuw %struct.job_record, ptr %22, i32 0, i32 20
  %24 = load ptr, ptr %23, align 8
  %25 = icmp ne ptr %24, null
  br i1 %25, label %26, label %29

26:                                               ; preds = %21
  %27 = load ptr, ptr %6, align 8
  %28 = getelementptr inbounds nuw %struct.job_record, ptr %27, i32 0, i32 20
  call void @slurm_xstrcat(ptr noundef %28, ptr noundef @.str.3)
  br label %29

29:                                               ; preds = %26, %21
  %30 = load ptr, ptr %6, align 8
  %31 = getelementptr inbounds nuw %struct.job_record, ptr %30, i32 0, i32 20
  call void @slurm_xstrcat(ptr noundef %31, ptr noundef @.str.4)
  %32 = load ptr, ptr %5, align 8
  %33 = getelementptr inbounds nuw %struct.job_descriptor, ptr %32, i32 0, i32 125
  %34 = load ptr, ptr %33, align 8
  %35 = getelementptr inbounds i8, ptr %34, i64 0
  %36 = load i8, ptr %35, align 1
  %37 = sext i8 %36 to i32
  %38 = icmp ne i32 %37, 47
  br i1 %38, label %39, label %61

39:                                               ; preds = %29
  %40 = load ptr, ptr %6, align 8
  %41 = getelementptr inbounds nuw %struct.job_record, ptr %40, i32 0, i32 30
  %42 = load ptr, ptr %41, align 8
  %43 = icmp ne ptr %42, null
  br i1 %43, label %44, label %61

44:                                               ; preds = %39
  %45 = load ptr, ptr %6, align 8
  %46 = getelementptr inbounds nuw %struct.job_record, ptr %45, i32 0, i32 30
  %47 = load ptr, ptr %46, align 8
  %48 = getelementptr inbounds nuw %struct.job_details_t, ptr %47, i32 0, i32 78
  %49 = load ptr, ptr %48, align 8
  %50 = icmp ne ptr %49, null
  br i1 %50, label %51, label %61

51:                                               ; preds = %44
  %52 = load ptr, ptr %6, align 8
  %53 = getelementptr inbounds nuw %struct.job_record, ptr %52, i32 0, i32 20
  %54 = load ptr, ptr %6, align 8
  %55 = getelementptr inbounds nuw %struct.job_record, ptr %54, i32 0, i32 30
  %56 = load ptr, ptr %55, align 8
  %57 = getelementptr inbounds nuw %struct.job_details_t, ptr %56, i32 0, i32 78
  %58 = load ptr, ptr %57, align 8
  call void @slurm_xstrcat(ptr noundef %53, ptr noundef %58)
  %59 = load ptr, ptr %6, align 8
  %60 = getelementptr inbounds nuw %struct.job_record, ptr %59, i32 0, i32 20
  call void @slurm_xstrcat(ptr noundef %60, ptr noundef @.str.5)
  br label %61

61:                                               ; preds = %51, %44, %39, %29
  %62 = load ptr, ptr %5, align 8
  %63 = getelementptr inbounds nuw %struct.job_descriptor, ptr %62, i32 0, i32 125
  %64 = load ptr, ptr %63, align 8
  %65 = call ptr @strstr(ptr noundef %64, ptr noundef @.str.6) #10
  store ptr %65, ptr %9, align 8
  %66 = load ptr, ptr %9, align 8
  %67 = icmp ne ptr %66, null
  br i1 %67, label %68, label %85

68:                                               ; preds = %61
  call void @llvm.lifetime.start.p0(i64 8, ptr %10) #9
  call void @llvm.lifetime.start.p0(i64 8, ptr %11) #9
  %69 = load ptr, ptr %5, align 8
  %70 = getelementptr inbounds nuw %struct.job_descriptor, ptr %69, i32 0, i32 125
  %71 = load ptr, ptr %70, align 8
  %72 = call ptr @slurm_xstrdup(ptr noundef %71)
  store ptr %72, ptr %11, align 8
  %73 = load ptr, ptr %11, align 8
  %74 = call ptr @strstr(ptr noundef %73, ptr noundef @.str.6) #10
  store ptr %74, ptr %10, align 8
  %75 = load ptr, ptr %10, align 8
  %76 = getelementptr inbounds i8, ptr %75, i64 0
  store i8 0, ptr %76, align 1
  %77 = load ptr, ptr %6, align 8
  %78 = getelementptr inbounds nuw %struct.job_record, ptr %77, i32 0, i32 53
  %79 = load i32, ptr %78, align 8
  call void (ptr, ptr, ...) @slurm_xstrfmtcat(ptr noundef %11, ptr noundef @.str.7, i32 noundef %79)
  %80 = load ptr, ptr %9, align 8
  %81 = getelementptr inbounds i8, ptr %80, i64 2
  call void @slurm_xstrcat(ptr noundef %11, ptr noundef %81)
  %82 = load ptr, ptr %6, align 8
  %83 = getelementptr inbounds nuw %struct.job_record, ptr %82, i32 0, i32 20
  %84 = load ptr, ptr %11, align 8
  call void @slurm_xstrcat(ptr noundef %83, ptr noundef %84)
  call void @slurm_xfree(ptr noundef %11)
  call void @llvm.lifetime.end.p0(i64 8, ptr %11) #9
  call void @llvm.lifetime.end.p0(i64 8, ptr %10) #9
  br label %91

85:                                               ; preds = %61
  %86 = load ptr, ptr %6, align 8
  %87 = getelementptr inbounds nuw %struct.job_record, ptr %86, i32 0, i32 20
  %88 = load ptr, ptr %5, align 8
  %89 = getelementptr inbounds nuw %struct.job_descriptor, ptr %88, i32 0, i32 125
  %90 = load ptr, ptr %89, align 8
  call void @slurm_xstrcat(ptr noundef %87, ptr noundef %90)
  br label %91

91:                                               ; preds = %85, %68
  %92 = load ptr, ptr %5, align 8
  %93 = getelementptr inbounds nuw %struct.job_descriptor, ptr %92, i32 0, i32 125
  call void @slurm_xfree(ptr noundef %93)
  br label %94

94:                                               ; preds = %91, %4
  call void @llvm.lifetime.end.p0(i64 8, ptr %9) #9
  ret i32 0
}