; Function Attrs: nounwind uwtable
define dso_local noundef i32 @job_modify(ptr noundef %0, ptr noundef %1, i32 noundef %2, ptr noundef readnone captures(none) %3) local_unnamed_addr #1 {
  %5 = alloca ptr, align 8
  %6 = getelementptr inbounds nuw i8, ptr %1, i64 392
  %7 = load i32, ptr %6, align 8
  tail call fastcc void @_xlate_dependency(ptr noundef %0, i32 noundef %2, i32 noundef %7)
  %8 = getelementptr inbounds nuw i8, ptr %0, i64 848
  %9 = load ptr, ptr %8, align 8
  %.not = icmp eq ptr %9, null
  br i1 %.not, label %35, label %10

10:                                               ; preds = %4
  %11 = getelementptr inbounds nuw i8, ptr %1, i64 144
  %12 = load ptr, ptr %11, align 8
  %.not24 = icmp eq ptr %12, null
  br i1 %.not24, label %14, label %13

13:                                               ; preds = %10
  tail call void @slurm_xstrcat(ptr noundef nonnull %11, ptr noundef nonnull @.str.3) #12
  br label %14

14:                                               ; preds = %13, %10
  tail call void @slurm_xstrcat(ptr noundef nonnull %11, ptr noundef nonnull @.str.4) #12
  %15 = load ptr, ptr %8, align 8
  %16 = load i8, ptr %15, align 1
  %.not25 = icmp eq i8 %16, 47
  br i1 %.not25, label %24, label %17

17:                                               ; preds = %14
  %18 = getelementptr inbounds nuw i8, ptr %1, i64 216
  %19 = load ptr, ptr %18, align 8
  %.not26 = icmp eq ptr %19, null
  br i1 %.not26, label %24, label %20

20:                                               ; preds = %17
  %21 = getelementptr inbounds nuw i8, ptr %19, i64 488
  %22 = load ptr, ptr %21, align 8
  %.not27 = icmp eq ptr %22, null
  br i1 %.not27, label %24, label %23

23:                                               ; preds = %20
  tail call void @slurm_xstrcat(ptr noundef nonnull %11, ptr noundef nonnull %22) #12
  tail call void @slurm_xstrcat(ptr noundef nonnull %11, ptr noundef nonnull @.str.5) #12
  %.pre = load ptr, ptr %8, align 8
  br label %24

24:                                               ; preds = %23, %20, %17, %14
  %25 = phi ptr [ %.pre, %23 ], [ %15, %20 ], [ %15, %17 ], [ %15, %14 ]
  %26 = tail call ptr @strstr(ptr noundef nonnull dereferenceable(1) %25, ptr noundef nonnull dereferenceable(1) @.str.6) #13
  %.not28 = icmp eq ptr %26, null
  br i1 %.not28, label %33, label %27

27:                                               ; preds = %24
  call void @llvm.lifetime.start.p0(i64 8, ptr nonnull %5) #12
  %28 = tail call ptr @slurm_xstrdup(ptr noundef nonnull %25) #12
  store ptr %28, ptr %5, align 8
  %29 = tail call ptr @strstr(ptr noundef nonnull dereferenceable(1) %28, ptr noundef nonnull dereferenceable(1) @.str.6) #13
  store i8 0, ptr %29, align 1
  %30 = load i32, ptr %6, align 8
  call void (ptr, ptr, ...) @slurm_xstrfmtcat(ptr noundef nonnull %5, ptr noundef nonnull @.str.7, i32 noundef %30) #12
  %31 = getelementptr inbounds nuw i8, ptr %26, i64 2
  call void @slurm_xstrcat(ptr noundef nonnull %5, ptr noundef nonnull %31) #12
  %32 = load ptr, ptr %5, align 8
  call void @slurm_xstrcat(ptr noundef nonnull %11, ptr noundef %32) #12
  call void @slurm_xfree(ptr noundef nonnull %5) #12
  call void @llvm.lifetime.end.p0(i64 8, ptr nonnull %5) #12
  br label %34

33:                                               ; preds = %24
  tail call void @slurm_xstrcat(ptr noundef nonnull %11, ptr noundef nonnull %25) #12
  br label %34

34:                                               ; preds = %33, %27
  call void @slurm_xfree(ptr noundef nonnull %8) #12
  br label %35

35:                                               ; preds = %34, %4
  ret i32 0
}